target datalayout = "e-m:e-p270:32:32-p271:32:32-p272:64:64-i64:64-i128:128-f80:128-n8:16:32:64-S128"
target triple = "x86_64-pc-linux-gnu"

%struct.Gia_Obj_t_ = type <{ i64, i32 }>
%struct.Vec_Int_t_ = type { i32, i32, ptr }
%struct.Gia_Man_t_ = type { ptr, ptr, i32, i32, i32, i32, ptr, ptr, i32, i32, i32, ptr, ptr, %struct.Vec_Int_t_, %struct.Vec_Int_t_, i32, i32, i32, %struct.Vec_Int_t_, ptr, ptr, ptr, i32, i32, i32, i32, ptr, ptr, ptr, ptr, ptr, i32, i32, ptr, i32, ptr, ptr, ptr, ptr, ptr, ptr, ptr, ptr, ptr, ptr, ptr, ptr, ptr, ptr, ptr, ptr, ptr, ptr, %struct.Vec_Int_t_, %struct.Vec_Int_t_, ptr, ptr, ptr, ptr, ptr, ptr, ptr, ptr, ptr, ptr, ptr, ptr, ptr, ptr, ptr, ptr, ptr, ptr, ptr, ptr, ptr, i32, float, float, ptr, ptr, i32, ptr, ptr, ptr, ptr, ptr, ptr, ptr, ptr, ptr, ptr, ptr, ptr, ptr, ptr, ptr, i64, i64, ptr, ptr, i32, i32, i32, i32, i32, i32, i32, i32, i32, i32, i32, i32, ptr, ptr, ptr, ptr, ptr, ptr, ptr, ptr, i32, i32, i32, ptr, i32, i32, ptr, ptr, ptr, ptr, ptr, ptr, i32, i32, ptr, %struct.Vec_Int_t_, %struct.Vec_Int_t_, %struct.Vec_Int_t_, ptr, ptr, ptr }

; Function Attrs: nounwind uwtable
define internal i32 @Gia_ObjFaninC1(ptr noundef %0) #0 {
  %2 = alloca ptr, align 8
  store ptr %0, ptr %2, align 8
  %3 = load ptr, ptr %2, align 8
  %4 = load i64, ptr %3, align 4
  %5 = lshr i64 %4, 61
  %6 = and i64 %5, 1
  %7 = trunc i64 %6 to i32
  ret i32 %7
}

; Function Attrs: nounwind uwtable
define internal ptr @Gia_ObjFanin1(ptr noundef %0) #0 {
  %2 = alloca ptr, align 8
  store ptr %0, ptr %2, align 8
  %3 = load ptr, ptr %2, align 8
  %4 = load ptr, ptr %2, align 8
  %5 = load i64, ptr %4, align 4
  %6 = lshr i64 %5, 32
  %7 = and i64 %6, 536870911
  %8 = trunc i64 %7 to i32
  %9 = sext i32 %8 to i64
  %10 = sub i64 0, %9
  %11 = getelementptr inbounds %struct.Gia_Obj_t_, ptr %3, i64 %10
  ret ptr %11
}

; Function Attrs: nounwind uwtable
define internal i32 @Abc_LitNotCond(i32 noundef %0, i32 noundef %1) #0 {
  %3 = alloca i32, align 4
  %4 = alloca i32, align 4
  store i32 %0, ptr %3, align 4
  store i32 %1, ptr %4, align 4
  %5 = load i32, ptr %3, align 4
  %6 = load i32, ptr %4, align 4
  %7 = icmp sgt i32 %6, 0
  %8 = zext i1 %7 to i32
  %9 = xor i32 %5, %8
  ret i32 %9
}

; Function Attrs: nounwind uwtable
define internal i32 @Gia_ObjFaninC0(ptr noundef %0) #0 {
  %2 = alloca ptr, align 8
  store ptr %0, ptr %2, align 8
  %3 = load ptr, ptr %2, align 8
  %4 = load i64, ptr %3, align 4
  %5 = lshr i64 %4, 29
  %6 = and i64 %5, 1
  %7 = trunc i64 %6 to i32
  ret i32 %7
}

; Function Attrs: nounwind uwtable
define internal ptr @Gia_ObjFanin0(ptr noundef %0) #0 {
  %2 = alloca ptr, align 8
  store ptr %0, ptr %2, align 8
  %3 = load ptr, ptr %2, align 8
  %4 = load ptr, ptr %2, align 8
  %5 = load i64, ptr %4, align 4
  %6 = and i64 %5, 536870911
  %7 = trunc i64 %6 to i32
  %8 = sext i32 %7 to i64
  %9 = sub i64 0, %8
  %10 = getelementptr inbounds %struct.Gia_Obj_t_, ptr %3, i64 %9
  ret ptr %10
}

; Function Attrs: nounwind uwtable
define internal i32 @Vec_IntEntry(ptr noundef %0, i32 noundef %1) #0 {
  %3 = alloca ptr, align 8
  %4 = alloca i32, align 4
  store ptr %0, ptr %3, align 8
  store i32 %1, ptr %4, align 4
  %5 = load ptr, ptr %3, align 8
  %6 = getelementptr inbounds %struct.Vec_Int_t_, ptr %5, i32 0, i32 2
  %7 = load ptr, ptr %6, align 8
  %8 = load i32, ptr %4, align 4
  %9 = sext i32 %8 to i64
  %10 = getelementptr inbounds i32, ptr %7, i64 %9
  %11 = load i32, ptr %10, align 4
  ret i32 %11
}

; Function Attrs: nounwind uwtable
define internal i32 @Gia_ManRegNum(ptr noundef %0) #0 {
  %2 = alloca ptr, align 8
  store ptr %0, ptr %2, align 8
  %3 = load ptr, ptr %2, align 8
  %4 = getelementptr inbounds %struct.Gia_Man_t_, ptr %3, i32 0, i32 2
  %5 = load i32, ptr %4, align 8
  ret i32 %5
}

; Function Attrs: nounwind uwtable
define internal ptr @Gia_ManCo(ptr noundef %0, i32 noundef %1) #0 {
  %3 = alloca ptr, align 8
  %4 = alloca i32, align 4
  store ptr %0, ptr %3, align 8
  store i32 %1, ptr %4, align 4
  %5 = load ptr, ptr %3, align 8
  %6 = load ptr, ptr %3, align 8
  %7 = getelementptr inbounds %struct.Gia_Man_t_, ptr %6, i32 0, i32 12
  %8 = load ptr, ptr %7, align 8
  %9 = load i32, ptr %4, align 4
  %10 = call i32 @Vec_IntEntry(ptr noundef %8, i32 noundef %9)
  %11 = call ptr @Gia_ManObj(ptr noundef %5, i32 noundef %10)
  ret ptr %11
}

; Function Attrs: nounwind uwtable
define internal i32 @Abc_Var2Lit(i32 noundef %0, i32 noundef %1) #0 {
  %3 = alloca i32, align 4
  %4 = alloca i32, align 4
  store i32 %0, ptr %3, align 4
  store i32 %1, ptr %4, align 4
  %5 = load i32, ptr %3, align 4
  %6 = load i32, ptr %3, align 4
  %7 = add nsw i32 %5, %6
  %8 = load i32, ptr %4, align 4
  %9 = add nsw i32 %7, %8
  ret i32 %9
}

; Function Attrs: nounwind uwtable
define internal i32 @Abc_LitIsCompl(i32 noundef %0) #0 {
  %2 = alloca i32, align 4
  store i32 %0, ptr %2, align 4
  %3 = load i32, ptr %2, align 4
  %4 = and i32 %3, 1
  ret i32 %4
}

; Function Attrs: nounwind uwtable
define internal i32 @Abc_Lit2Var(i32 noundef %0) #0 {
  %2 = alloca i32, align 4
  store i32 %0, ptr %2, align 4
  %3 = load i32, ptr %2, align 4
  %4 = ashr i32 %3, 1
  ret i32 %4
}

; Function Attrs: nounwind uwtable
define internal i32 @Gia_ManCiNum(ptr noundef %0) #0 {
  %2 = alloca ptr, align 8
  store ptr %0, ptr %2, align 8
  %3 = load ptr, ptr %2, align 8
  %4 = getelementptr inbounds %struct.Gia_Man_t_, ptr %3, i32 0, i32 11
  %5 = load ptr, ptr %4, align 8
  %6 = call i32 @Vec_IntSize(ptr noundef %5)
  ret i32 %6
}

; Function Attrs: nounwind uwtable
define internal i32 @Gia_ObjFanin1Copy(ptr noundef %0) #0 {
  %2 = alloca ptr, align 8
  store ptr %0, ptr %2, align 8
  %3 = load ptr, ptr %2, align 8
  %4 = call ptr @Gia_ObjFanin1(ptr noundef %3)
  %5 = getelementptr inbounds %struct.Gia_Obj_t_, ptr %4, i32 0, i32 1
  %6 = load i32, ptr %5, align 4
  %7 = load ptr, ptr %2, align 8
  %8 = call i32 @Gia_ObjFaninC1(ptr noundef %7)
  %9 = call i32 @Abc_LitNotCond(i32 noundef %6, i32 noundef %8)
  ret i32 %9
}

; Function Attrs: nounwind uwtable
define internal i32 @Gia_ObjFanin0Copy(ptr noundef %0) #0 {
  %2 = alloca ptr, align 8
  store ptr %0, ptr %2, align 8
  %3 = load ptr, ptr %2, align 8
  %4 = call ptr @Gia_ObjFanin0(ptr noundef %3)
  %5 = getelementptr inbounds %struct.Gia_Obj_t_, ptr %4, i32 0, i32 1
  %6 = load i32, ptr %5, align 4
  %7 = load ptr, ptr %2, align 8
  %8 = call i32 @Gia_ObjFaninC0(ptr noundef %7)
  %9 = call i32 @Abc_LitNotCond(i32 noundef %6, i32 noundef %8)
  ret i32 %9
}

; Function Attrs: nounwind uwtable
define internal i32 @Gia_ObjIsAnd(ptr noundef %0) #0 {
  %2 = alloca ptr, align 8
  store ptr %0, ptr %2, align 8
  %3 = load ptr, ptr %2, align 8
  %4 = load i64, ptr %3, align 4
  %5 = lshr i64 %4, 31
  %6 = and i64 %5, 1
  %7 = trunc i64 %6 to i32
  %8 = icmp ne i32 %7, 0
  br i1 %8, label %15, label %9

9:                                                ; preds = %1
  %10 = load ptr, ptr %2, align 8
  %11 = load i64, ptr %10, align 4
  %12 = and i64 %11, 536870911
  %13 = trunc i64 %12 to i32
  %14 = icmp ne i32 %13, 536870911
  br label %15

15:                                               ; preds = %9, %1
  %16 = phi i1 [ false, %1 ], [ %14, %9 ]
  %17 = zext i1 %16 to i32
  ret i32 %17
}

; Function Attrs: nounwind uwtable
define internal ptr @Gia_ManObj(ptr noundef %0, i32 noundef %1) #0 {
  %3 = alloca ptr, align 8
  %4 = alloca i32, align 4
  store ptr %0, ptr %3, align 8
  store i32 %1, ptr %4, align 4
  %5 = load ptr, ptr %3, align 8
  %6 = getelementptr inbounds %struct.Gia_Man_t_, ptr %5, i32 0, i32 6
  %7 = load ptr, ptr %6, align 8
  %8 = load i32, ptr %4, align 4
  %9 = sext i32 %8 to i64
  %10 = getelementptr inbounds %struct.Gia_Obj_t_, ptr %7, i64 %9
  ret ptr %10
}

; Function Attrs: nounwind uwtable
define internal ptr @Gia_ManCi(ptr noundef %0, i32 noundef %1) #0 {
  %3 = alloca ptr, align 8
  %4 = alloca i32, align 4
  store ptr %0, ptr %3, align 8
  store i32 %1, ptr %4, align 4
  %5 = load ptr, ptr %3, align 8
  %6 = load ptr, ptr %3, align 8
  %7 = getelementptr inbounds %struct.Gia_Man_t_, ptr %6, i32 0, i32 11
  %8 = load ptr, ptr %7, align 8
  %9 = load i32, ptr %4, align 4
  %10 = call i32 @Vec_IntEntry(ptr noundef %8, i32 noundef %9)
  %11 = call ptr @Gia_ManObj(ptr noundef %5, i32 noundef %10)
  ret ptr %11
}

; Function Attrs: nounwind uwtable
define internal i32 @Vec_IntSize(ptr noundef %0) #0 {
  %2 = alloca ptr, align 8
  store ptr %0, ptr %2, align 8
  %3 = load ptr, ptr %2, align 8
  %4 = getelementptr inbounds %struct.Vec_Int_t_, ptr %3, i32 0, i32 1
  %5 = load i32, ptr %4, align 4
  ret i32 %5
}

; Function Attrs: nounwind uwtable
define internal ptr @Gia_ManConst0(ptr noundef %0) #0 {
  %2 = alloca ptr, align 8
  store ptr %0, ptr %2, align 8
  %3 = load ptr, ptr %2, align 8
  %4 = getelementptr inbounds %struct.Gia_Man_t_, ptr %3, i32 0, i32 6
  %5 = load ptr, ptr %4, align 8
  ret ptr %5
}

; Function Attrs: nounwind uwtable
define internal ptr @Abc_UtilStrsav(ptr noundef %0) #0 {
  %2 = alloca ptr, align 8
  store ptr %0, ptr %2, align 8
  %3 = load ptr, ptr %2, align 8
  %4 = icmp ne ptr %3, null
  br i1 %4, label %5, label %13

5:                                                ; preds = %1
  %6 = load ptr, ptr %2, align 8
  %7 = call i64 @strlen(ptr noundef %6) #14
  %8 = add i64 %7, 1
  %9 = mul i64 1, %8
  %10 = call noalias ptr @malloc(i64 noundef %9) #12
  %11 = load ptr, ptr %2, align 8
  %12 = call ptr @strcpy(ptr noundef %10, ptr noundef %11) #13
  br label %14

13:                                               ; preds = %1
  br label %14

14:                                               ; preds = %13, %5
  %15 = phi ptr [ %12, %5 ], [ null, %13 ]
  ret ptr %15
}

; Function Attrs: nounwind uwtable
define internal i32 @Gia_ManObjNum(ptr noundef %0) #0 {
  %2 = alloca ptr, align 8
  store ptr %0, ptr %2, align 8
  %3 = load ptr, ptr %2, align 8
  %4 = getelementptr inbounds %struct.Gia_Man_t_, ptr %3, i32 0, i32 4
  %5 = load i32, ptr %4, align 8
  ret i32 %5
}

; Function Attrs: nounwind uwtable
define ptr @Gia_ManDupPiPerm(ptr noundef %0) #0 {
  %2 = alloca ptr, align 8
  %3 = alloca ptr, align 8
  %4 = alloca ptr, align 8
  %5 = alloca ptr, align 8
  %6 = alloca i32, align 4
  %7 = alloca i32, align 4
  %8 = alloca i32, align 4
  %9 = alloca i32, align 4
  %10 = alloca i32, align 4
  store ptr %0, ptr %2, align 8
  %11 = call i32 @Gia_ManRandom(i32 noundef 1)
  %12 = load ptr, ptr %2, align 8
  %13 = call i32 @Gia_ManObjNum(ptr noundef %12)
  %14 = call ptr @Gia_ManStart(i32 noundef %13)
  store ptr %14, ptr %3, align 8
  %15 = load ptr, ptr %2, align 8
  %16 = getelementptr inbounds %struct.Gia_Man_t_, ptr %15, i32 0, i32 0
  %17 = load ptr, ptr %16, align 8
  %18 = call ptr @Abc_UtilStrsav(ptr noundef %17)
  %19 = load ptr, ptr %3, align 8
  %20 = getelementptr inbounds %struct.Gia_Man_t_, ptr %19, i32 0, i32 0
  store ptr %18, ptr %20, align 8
  %21 = load ptr, ptr %2, align 8
  %22 = getelementptr inbounds %struct.Gia_Man_t_, ptr %21, i32 0, i32 1
  %23 = load ptr, ptr %22, align 8
  %24 = call ptr @Abc_UtilStrsav(ptr noundef %23)
  %25 = load ptr, ptr %3, align 8
  %26 = getelementptr inbounds %struct.Gia_Man_t_, ptr %25, i32 0, i32 1
  store ptr %24, ptr %26, align 8
  %27 = load ptr, ptr %3, align 8
  call void @Gia_ManHashAlloc(ptr noundef %27)
  %28 = load ptr, ptr %2, align 8
  %29 = call ptr @Gia_ManConst0(ptr noundef %28)
  %30 = getelementptr inbounds %struct.Gia_Obj_t_, ptr %29, i32 0, i32 1
  store i32 0, ptr %30, align 4
  store i32 0, ptr %6, align 4
  br label %31

31:                                               ; preds = %50, %1
  %32 = load i32, ptr %6, align 4
  %33 = load ptr, ptr %2, align 8
  %34 = getelementptr inbounds %struct.Gia_Man_t_, ptr %33, i32 0, i32 11
  %35 = load ptr, ptr %34, align 8
  %36 = call i32 @Vec_IntSize(ptr noundef %35)
  %37 = icmp slt i32 %32, %36
  br i1 %37, label %38, label %43

38:                                               ; preds = %31
  %39 = load ptr, ptr %2, align 8
  %40 = load i32, ptr %6, align 4
  %41 = call ptr @Gia_ManCi(ptr noundef %39, i32 noundef %40)
  store ptr %41, ptr %5, align 8
  %42 = icmp ne ptr %41, null
  br label %43

43:                                               ; preds = %38, %31
  %44 = phi i1 [ false, %31 ], [ %42, %38 ]
  br i1 %44, label %45, label %53

45:                                               ; preds = %43
  %46 = load ptr, ptr %3, align 8
  %47 = call i32 @Gia_ManAppendCi(ptr noundef %46)
  %48 = load ptr, ptr %5, align 8
  %49 = getelementptr inbounds %struct.Gia_Obj_t_, ptr %48, i32 0, i32 1
  store i32 %47, ptr %49, align 4
  br label %50

50:                                               ; preds = %45
  %51 = load i32, ptr %6, align 4
  %52 = add nsw i32 %51, 1
  store i32 %52, ptr %6, align 4
  br label %31, !llvm.loop !85

53:                                               ; preds = %43
  store i32 0, ptr %6, align 4
  br label %54

54:                                               ; preds = %116, %53
  %55 = load i32, ptr %6, align 4
  %56 = load ptr, ptr %2, align 8
  %57 = getelementptr inbounds %struct.Gia_Man_t_, ptr %56, i32 0, i32 4
  %58 = load i32, ptr %57, align 8
  %59 = icmp slt i32 %55, %58
  br i1 %59, label %60, label %65

60:                                               ; preds = %54
  %61 = load ptr, ptr %2, align 8
  %62 = load i32, ptr %6, align 4
  %63 = call ptr @Gia_ManObj(ptr noundef %61, i32 noundef %62)
  store ptr %63, ptr %5, align 8
  %64 = icmp ne ptr %63, null
  br label %65

65:                                               ; preds = %60, %54
  %66 = phi i1 [ false, %54 ], [ %64, %60 ]
  br i1 %66, label %67, label %119

67:                                               ; preds = %65
  %68 = load ptr, ptr %5, align 8
  %69 = call i32 @Gia_ObjIsAnd(ptr noundef %68)
  %70 = icmp ne i32 %69, 0
  br i1 %70, label %72, label %71

71:                                               ; preds = %67
  br label %115

72:                                               ; preds = %67
  %73 = load ptr, ptr %5, align 8
  %74 = call i32 @Gia_ObjFanin0Copy(ptr noundef %73)
  store i32 %74, ptr %7, align 4
  %75 = load ptr, ptr %5, align 8
  %76 = call i32 @Gia_ObjFanin1Copy(ptr noundef %75)
  store i32 %76, ptr %8, align 4
  %77 = call i32 @Gia_ManRandom(i32 noundef 0)
  %78 = load ptr, ptr %2, align 8
  %79 = call i32 @Gia_ManCiNum(ptr noundef %78)
  %80 = urem i32 %77, %79
  store i32 %80, ptr %9, align 4
  %81 = call i32 @Gia_ManRandom(i32 noundef 0)
  %82 = load ptr, ptr %2, align 8
  %83 = call i32 @Gia_ManCiNum(ptr noundef %82)
  %84 = urem i32 %81, %83
  store i32 %84, ptr %10, align 4
  %85 = load i32, ptr %7, align 4
  %86 = call i32 @Abc_Lit2Var(i32 noundef %85)
  %87 = load ptr, ptr %2, align 8
  %88 = call i32 @Gia_ManCiNum(ptr noundef %87)
  %89 = icmp sle i32 %86, %88
  br i1 %89, label %90, label %96

90:                                               ; preds = %72
  %91 = load i32, ptr %9, align 4
  %92 = add nsw i32 %91, 1
  %93 = load i32, ptr %7, align 4
  %94 = call i32 @Abc_LitIsCompl(i32 noundef %93)
  %95 = call i32 @Abc_Var2Lit(i32 noundef %92, i32 noundef %94)
  store i32 %95, ptr %7, align 4
  br label %96

96:                                               ; preds = %90, %72
  %97 = load i32, ptr %8, align 4
  %98 = call i32 @Abc_Lit2Var(i32 noundef %97)
  %99 = load ptr, ptr %2, align 8
  %100 = call i32 @Gia_ManCiNum(ptr noundef %99)
  %101 = icmp sle i32 %98, %100
  br i1 %101, label %102, label %108

102:                                              ; preds = %96
  %103 = load i32, ptr %10, align 4
  %104 = add nsw i32 %103, 1
  %105 = load i32, ptr %8, align 4
  %106 = call i32 @Abc_LitIsCompl(i32 noundef %105)
  %107 = call i32 @Abc_Var2Lit(i32 noundef %104, i32 noundef %106)
  store i32 %107, ptr %8, align 4
  br label %108

108:                                              ; preds = %102, %96
  %109 = load ptr, ptr %3, align 8
  %110 = load i32, ptr %7, align 4
  %111 = load i32, ptr %8, align 4
  %112 = call i32 @Gia_ManHashAnd(ptr noundef %109, i32 noundef %110, i32 noundef %111)
  %113 = load ptr, ptr %5, align 8
  %114 = getelementptr inbounds %struct.Gia_Obj_t_, ptr %113, i32 0, i32 1
  store i32 %112, ptr %114, align 4
  br label %115

115:                                              ; preds = %108, %71
  br label %116

116:                                              ; preds = %115
  %117 = load i32, ptr %6, align 4
  %118 = add nsw i32 %117, 1
  store i32 %118, ptr %6, align 4
  br label %54, !llvm.loop !86

119:                                              ; preds = %65
  store i32 0, ptr %6, align 4
  br label %120

120:                                              ; preds = %141, %119
  %121 = load i32, ptr %6, align 4
  %122 = load ptr, ptr %2, align 8
  %123 = getelementptr inbounds %struct.Gia_Man_t_, ptr %122, i32 0, i32 12
  %124 = load ptr, ptr %123, align 8
  %125 = call i32 @Vec_IntSize(ptr noundef %124)
  %126 = icmp slt i32 %121, %125
  br i1 %126, label %127, label %132

127:                                              ; preds = %120
  %128 = load ptr, ptr %2, align 8
  %129 = load i32, ptr %6, align 4
  %130 = call ptr @Gia_ManCo(ptr noundef %128, i32 noundef %129)
  store ptr %130, ptr %5, align 8
  %131 = icmp ne ptr %130, null
  br label %132

132:                                              ; preds = %127, %120
  %133 = phi i1 [ false, %120 ], [ %131, %127 ]
  br i1 %133, label %134, label %144

134:                                              ; preds = %132
  %135 = load ptr, ptr %3, align 8
  %136 = load ptr, ptr %5, align 8
  %137 = call i32 @Gia_ObjFanin0Copy(ptr noundef %136)
  %138 = call i32 @Gia_ManAppendCo(ptr noundef %135, i32 noundef %137)
  %139 = load ptr, ptr %5, align 8
  %140 = getelementptr inbounds %struct.Gia_Obj_t_, ptr %139, i32 0, i32 1
  store i32 %138, ptr %140, align 4
  br label %141

141:                                              ; preds = %134
  %142 = load i32, ptr %6, align 4
  %143 = add nsw i32 %142, 1
  store i32 %143, ptr %6, align 4
  br label %120, !llvm.loop !87

144:                                              ; preds = %132
  %145 = load ptr, ptr %3, align 8
  call void @Gia_ManHashStop(ptr noundef %145)
  %146 = load ptr, ptr %3, align 8
  %147 = load ptr, ptr %2, align 8
  %148 = call i32 @Gia_ManRegNum(ptr noundef %147)
  call void @Gia_ManSetRegNum(ptr noundef %146, i32 noundef %148)
  %149 = load ptr, ptr %3, align 8
  store ptr %149, ptr %4, align 8
  %150 = call ptr @Gia_ManCleanup(ptr noundef %149)
  store ptr %150, ptr %3, align 8
  %151 = load ptr, ptr %4, align 8
  call void @Gia_ManStop(ptr noundef %151)
  %152 = load ptr, ptr %3, align 8
  ret ptr %152
}