; Function Attrs: nounwind uwtable
define ptr @Gia_ManDupPiPerm(ptr noundef readonly captures(none) %0) local_unnamed_addr #1 {
  %2 = tail call i32 @Gia_ManRandom(i32 noundef 1) #29
  %3 = getelementptr i8, ptr %0, i64 24
  %.val65 = load i32, ptr %3, align 8
  %4 = tail call ptr @Gia_ManStart(i32 noundef %.val65) #29
  %5 = load ptr, ptr %0, align 8
  %.not.i = icmp eq ptr %5, null
  br i1 %.not.i, label %Abc_UtilStrsav.exit, label %6

6:                                                ; preds = %1
  %7 = tail call i64 @strlen(ptr noundef nonnull readonly dereferenceable(1) %5) #30
  %8 = add i64 %7, 1
  %9 = tail call noalias ptr @malloc(i64 noundef %8) #27
  %10 = tail call ptr @strcpy(ptr noundef nonnull dereferenceable(1) %9, ptr noundef nonnull readonly dereferenceable(1) %5) #29
  br label %Abc_UtilStrsav.exit

Abc_UtilStrsav.exit:                              ; preds = %1, %6
  %11 = phi ptr [ %9, %6 ], [ null, %1 ]
  store ptr %11, ptr %4, align 8
  %12 = getelementptr inbounds nuw i8, ptr %0, i64 8
  %13 = load ptr, ptr %12, align 8
  %.not.i77 = icmp eq ptr %13, null
  br i1 %.not.i77, label %Abc_UtilStrsav.exit78, label %14

14:                                               ; preds = %Abc_UtilStrsav.exit
  %15 = tail call i64 @strlen(ptr noundef nonnull readonly dereferenceable(1) %13) #30
  %16 = add i64 %15, 1
  %17 = tail call noalias ptr @malloc(i64 noundef %16) #27
  %18 = tail call ptr @strcpy(ptr noundef nonnull dereferenceable(1) %17, ptr noundef nonnull readonly dereferenceable(1) %13) #29
  br label %Abc_UtilStrsav.exit78

Abc_UtilStrsav.exit78:                            ; preds = %Abc_UtilStrsav.exit, %14
  %19 = phi ptr [ %17, %14 ], [ null, %Abc_UtilStrsav.exit ]
  %20 = getelementptr inbounds nuw i8, ptr %4, i64 8
  store ptr %19, ptr %20, align 8
  tail call void @Gia_ManHashAlloc(ptr noundef nonnull %4) #29
  %21 = getelementptr i8, ptr %0, i64 32
  %.val70 = load ptr, ptr %21, align 8
  %22 = getelementptr inbounds nuw i8, ptr %.val70, i64 8
  store i32 0, ptr %22, align 4
  %23 = getelementptr inbounds nuw i8, ptr %0, i64 64
  %24 = load ptr, ptr %23, align 8
  %25 = getelementptr i8, ptr %24, i64 4
  %.val6381 = load i32, ptr %25, align 4
  %26 = icmp sgt i32 %.val6381, 0
  br i1 %26, label %.lr.ph, label %.critedge

.lr.ph:                                           ; preds = %Abc_UtilStrsav.exit78, %28
  %indvars.iv = phi i64 [ %indvars.iv.next, %28 ], [ 0, %Abc_UtilStrsav.exit78 ]
  %27 = phi ptr [ %35, %28 ], [ %24, %Abc_UtilStrsav.exit78 ]
  %.val66 = load ptr, ptr %21, align 8
  %.not = icmp eq ptr %.val66, null
  br i1 %.not, label %.critedge, label %28

28:                                               ; preds = %.lr.ph
  %29 = getelementptr i8, ptr %27, i64 8
  %.val67.val = load ptr, ptr %29, align 8
  %30 = getelementptr inbounds nuw i32, ptr %.val67.val, i64 %indvars.iv
  %31 = load i32, ptr %30, align 4
  %32 = sext i32 %31 to i64
  %33 = tail call fastcc i32 @Gia_ManAppendCi(ptr noundef nonnull %4)
  %34 = getelementptr inbounds %struct.Gia_Obj_t_, ptr %.val66, i64 %32, i32 1
  store i32 %33, ptr %34, align 4
  %indvars.iv.next = add nuw nsw i64 %indvars.iv, 1
  %35 = load ptr, ptr %23, align 8
  %36 = getelementptr i8, ptr %35, i64 4
  %.val63 = load i32, ptr %36, align 4
  %37 = sext i32 %.val63 to i64
  %38 = icmp slt i64 %indvars.iv.next, %37
  br i1 %38, label %.lr.ph, label %.critedge, !llvm.loop !84

.critedge:                                        ; preds = %.lr.ph, %28, %Abc_UtilStrsav.exit78
  %39 = load i32, ptr %3, align 8
  %40 = icmp sgt i32 %39, 0
  br i1 %40, label %.lr.ph85, label %.critedge2

.lr.ph85:                                         ; preds = %.critedge, %84
  %41 = phi i32 [ %85, %84 ], [ %39, %.critedge ]
  %indvars.iv92 = phi i64 [ %indvars.iv.next93, %84 ], [ 0, %.critedge ]
  %.val64 = load ptr, ptr %21, align 8
  %42 = getelementptr inbounds nuw %struct.Gia_Obj_t_, ptr %.val64, i64 %indvars.iv92
  %.not58 = icmp eq ptr %.val64, null
  br i1 %.not58, label %.critedge2, label %43

43:                                               ; preds = %.lr.ph85
  %.val76 = load i64, ptr %42, align 4
  %44 = and i64 %.val76, 2147483648
  %.not.i79 = icmp ne i64 %44, 0
  %45 = and i64 %.val76, 536870911
  %46 = icmp eq i64 %45, 536870911
  %narrow.i.not = or i1 %.not.i79, %46
  br i1 %narrow.i.not, label %84, label %47

47:                                               ; preds = %43
  %48 = sub nsw i64 0, %45
  %49 = getelementptr inbounds %struct.Gia_Obj_t_, ptr %42, i64 %48, i32 1
  %50 = load i32, ptr %49, align 4
  %51 = trunc i64 %.val76 to i32
  %52 = lshr i32 %51, 29
  %53 = and i32 %52, 1
  %54 = xor i32 %50, %53
  %55 = lshr i64 %.val76, 32
  %56 = and i64 %55, 536870911
  %57 = sub nsw i64 0, %56
  %58 = getelementptr inbounds %struct.Gia_Obj_t_, ptr %42, i64 %57, i32 1
  %59 = load i32, ptr %58, align 4
  %60 = lshr i64 %.val76, 61
  %61 = trunc nuw nsw i64 %60 to i32
  %62 = and i32 %61, 1
  %63 = xor i32 %59, %62
  %64 = tail call i32 @Gia_ManRandom(i32 noundef 0) #29
  %.val75 = load ptr, ptr %23, align 8
  %65 = getelementptr i8, ptr %.val75, i64 4
  %.val75.val = load i32, ptr %65, align 4
  %66 = tail call i32 @Gia_ManRandom(i32 noundef 0) #29
  %.val74 = load ptr, ptr %23, align 8
  %67 = getelementptr i8, ptr %.val74, i64 4
  %.val74.val = load i32, ptr %67, align 4
  %68 = urem i32 %66, %.val74.val
  %69 = ashr i32 %50, 1
  %.not61 = icmp sgt i32 %69, %.val74.val
  br i1 %.not61, label %76, label %70

70:                                               ; preds = %47
  %71 = urem i32 %64, %.val75.val
  %72 = and i32 %54, 1
  %73 = shl i32 %71, 1
  %74 = add i32 %73, 2
  %75 = or disjoint i32 %74, %72
  br label %76

76:                                               ; preds = %70, %47
  %.053 = phi i32 [ %75, %70 ], [ %54, %47 ]
  %77 = ashr i32 %59, 1
  %.not62 = icmp sgt i32 %77, %.val74.val
  %78 = and i32 %63, 1
  %79 = shl i32 %68, 1
  %80 = add i32 %79, 2
  %81 = or disjoint i32 %80, %78
  %.0 = select i1 %.not62, i32 %63, i32 %81
  %82 = tail call i32 @Gia_ManHashAnd(ptr noundef nonnull %4, i32 noundef %.053, i32 noundef %.0) #29
  %83 = getelementptr inbounds nuw i8, ptr %42, i64 8
  store i32 %82, ptr %83, align 4
  %.pre = load i32, ptr %3, align 8
  br label %84

84:                                               ; preds = %76, %43
  %85 = phi i32 [ %.pre, %76 ], [ %41, %43 ]
  %indvars.iv.next93 = add nuw nsw i64 %indvars.iv92, 1
  %86 = sext i32 %85 to i64
  %87 = icmp slt i64 %indvars.iv.next93, %86
  br i1 %87, label %.lr.ph85, label %.critedge2, !llvm.loop !85

.critedge2:                                       ; preds = %.lr.ph85, %84, %.critedge
  %88 = getelementptr inbounds nuw i8, ptr %0, i64 72
  %89 = load ptr, ptr %88, align 8
  %90 = getelementptr i8, ptr %89, i64 4
  %.val87 = load i32, ptr %90, align 4
  %91 = icmp sgt i32 %.val87, 0
  br i1 %91, label %.lr.ph89, label %.critedge4

.lr.ph89:                                         ; preds = %.critedge2, %93
  %indvars.iv95 = phi i64 [ %indvars.iv.next96, %93 ], [ 0, %.critedge2 ]
  %92 = phi ptr [ %110, %93 ], [ %89, %.critedge2 ]
  %.val68 = load ptr, ptr %21, align 8
  %.not59 = icmp eq ptr %.val68, null
  br i1 %.not59, label %.critedge4, label %93

93:                                               ; preds = %.lr.ph89
  %94 = getelementptr i8, ptr %92, i64 8
  %.val69.val = load ptr, ptr %94, align 8
  %95 = getelementptr inbounds nuw i32, ptr %.val69.val, i64 %indvars.iv95
  %96 = load i32, ptr %95, align 4
  %97 = sext i32 %96 to i64
  %98 = getelementptr inbounds %struct.Gia_Obj_t_, ptr %.val68, i64 %97
  %99 = load i64, ptr %98, align 4
  %100 = and i64 %99, 536870911
  %101 = sub nsw i64 0, %100
  %102 = getelementptr inbounds %struct.Gia_Obj_t_, ptr %98, i64 %101, i32 1
  %103 = load i32, ptr %102, align 4
  %104 = trunc i64 %99 to i32
  %105 = lshr i32 %104, 29
  %106 = and i32 %105, 1
  %107 = xor i32 %106, %103
  %108 = tail call fastcc i32 @Gia_ManAppendCo(ptr noundef nonnull %4, i32 noundef %107)
  %109 = getelementptr inbounds nuw i8, ptr %98, i64 8
  store i32 %108, ptr %109, align 4
  %indvars.iv.next96 = add nuw nsw i64 %indvars.iv95, 1
  %110 = load ptr, ptr %88, align 8
  %111 = getelementptr i8, ptr %110, i64 4
  %.val = load i32, ptr %111, align 4
  %112 = sext i32 %.val to i64
  %113 = icmp slt i64 %indvars.iv.next96, %112
  br i1 %113, label %.lr.ph89, label %.critedge4, !llvm.loop !86

.critedge4:                                       ; preds = %.lr.ph89, %93, %.critedge2
  tail call void @Gia_ManHashStop(ptr noundef nonnull %4) #29
  %114 = getelementptr i8, ptr %0, i64 16
  %.val71 = load i32, ptr %114, align 8
  tail call void @Gia_ManSetRegNum(ptr noundef nonnull %4, i32 noundef %.val71) #29
  %115 = tail call ptr @Gia_ManCleanup(ptr noundef nonnull %4) #29
  tail call void @Gia_ManStop(ptr noundef nonnull %4) #29
  ret ptr %115
}